; ModuleID = 'source-C-CXX/41/1344.cpp'
source_filename = "source-C-CXX/41/1344.cpp"
target datalayout = "e-m:e-p270:32:32-p271:32:32-p272:64:64-i64:64-f80:128-n8:16:32:64-S128"
target triple = "x86_64-pc-linux-gnu"

%"class.std::ios_base::Init" = type { i8 }
%"class.std::basic_istream" = type { i32 (...)**, i64, %"class.std::basic_ios" }
%"class.std::basic_ios" = type { %"class.std::ios_base", %"class.std::basic_ostream"*, i8, i8, %"class.std::basic_streambuf"*, %"class.std::ctype"*, %"class.std::num_put"*, %"class.std::num_get"* }
%"class.std::ios_base" = type { i32 (...)**, i64, i64, i32, i32, i32, %"struct.std::ios_base::_Callback_list"*, %"struct.std::ios_base::_Words", [8 x %"struct.std::ios_base::_Words"], i32, %"struct.std::ios_base::_Words"*, %"class.std::locale" }
%"struct.std::ios_base::_Callback_list" = type { %"struct.std::ios_base::_Callback_list"*, void (i32, %"class.std::ios_base"*, i32)*, i32, i32 }
%"struct.std::ios_base::_Words" = type { i8*, i64 }
%"class.std::locale" = type { %"class.std::locale::_Impl"* }
%"class.std::locale::_Impl" = type { i32, %"class.std::locale::facet"**, i64, %"class.std::locale::facet"**, i8** }
%"class.std::locale::facet" = type <{ i32 (...)**, i32, [4 x i8] }>
%"class.std::basic_ostream" = type { i32 (...)**, %"class.std::basic_ios" }
%"class.std::basic_streambuf" = type { i32 (...)**, i8*, i8*, i8*, i8*, i8*, i8*, %"class.std::locale" }
%"class.std::ctype" = type <{ %"class.std::locale::facet.base", [4 x i8], %struct.__locale_struct*, i8, [7 x i8], i32*, i32*, i16*, i8, [256 x i8], [256 x i8], i8, [6 x i8] }>
%"class.std::locale::facet.base" = type <{ i32 (...)**, i32 }>
%struct.__locale_struct = type { [13 x %struct.__locale_data*], i16*, i32*, i32*, [13 x i8*] }
%struct.__locale_data = type opaque
%"class.std::num_put" = type { %"class.std::locale::facet.base", [4 x i8] }
%"class.std::num_get" = type { %"class.std::locale::facet.base", [4 x i8] }

@_ZStL8__ioinit = internal global %"class.std::ios_base::Init" zeroinitializer, align 1
@__dso_handle = external hidden global i8
@_ZSt3cin = external global %"class.std::basic_istream", align 8
@_ZSt4cout = external global %"class.std::basic_ostream", align 8
@.str = private unnamed_addr constant [2 x i8] c" \00", align 1
@llvm.global_ctors = appending global [1 x { i32, void ()*, i8* }] [{ i32, void ()*, i8* } { i32 65535, void ()* @_GLOBAL__sub_I_1344.cpp, i8* null }]

declare void @_ZNSt8ios_base4InitC1Ev(%"class.std::ios_base::Init"* nonnull align 1 dereferenceable(1)) unnamed_addr #0

; Function Attrs: nounwind
declare void @_ZNSt8ios_base4InitD1Ev(%"class.std::ios_base::Init"* nonnull align 1 dereferenceable(1)) unnamed_addr #1

; Function Attrs: nofree nounwind
declare i32 @__cxa_atexit(void (i8*)*, i8*, i8*) local_unnamed_addr #2

; Function Attrs: mustprogress norecurse sspstrong uwtable
define dso_local i32 @main() local_unnamed_addr #3 {
  %1 = alloca i32, align 4
  %2 = alloca i32, align 4
  %3 = alloca [100001 x i32], align 16
  %4 = alloca [100001 x i32], align 16
  %5 = bitcast i32* %1 to i8*
  call void @llvm.lifetime.start.p0i8(i64 4, i8* nonnull %5) #7
  %6 = bitcast i32* %2 to i8*
  call void @llvm.lifetime.start.p0i8(i64 4, i8* nonnull %6) #7
  %7 = call nonnull align 8 dereferenceable(16) %"class.std::basic_istream"* @_ZNSirsERi(%"class.std::basic_istream"* nonnull align 8 dereferenceable(16) @_ZSt3cin, i32* nonnull align 4 dereferenceable(4) %1)
  %8 = bitcast [100001 x i32]* %3 to i8*
  call void @llvm.lifetime.start.p0i8(i64 400004, i8* nonnull %8) #7
  call void @llvm.memset.p0i8.i64(i8* noundef nonnull align 16 dereferenceable(400004) %8, i8 0, i64 400004, i1 false)
  %9 = bitcast [100001 x i32]* %4 to i8*
  call void @llvm.lifetime.start.p0i8(i64 400004, i8* nonnull %9) #7
  call void @llvm.memset.p0i8.i64(i8* noundef nonnull align 16 dereferenceable(400004) %9, i8 0, i64 400004, i1 false)
  %10 = load i32, i32* %1, align 4, !tbaa !5
  %11 = icmp sgt i32 %10, 0
  br i1 %11, label %23, label %12

12:                                               ; preds = %23, %0
  %13 = call nonnull align 8 dereferenceable(16) %"class.std::basic_istream"* @_ZNSirsERi(%"class.std::basic_istream"* nonnull align 8 dereferenceable(16) @_ZSt3cin, i32* nonnull align 4 dereferenceable(4) %2)
  %14 = load i32, i32* %1, align 4, !tbaa !5
  %15 = load i32, i32* %2, align 4
  %16 = icmp sgt i32 %14, 0
  br i1 %16, label %17, label %77

17:                                               ; preds = %12
  %18 = zext i32 %14 to i64
  %19 = and i64 %18, 1
  %20 = icmp eq i32 %14, 1
  br i1 %20, label %31, label %21

21:                                               ; preds = %17
  %22 = and i64 %18, 4294967294
  br label %56

23:                                               ; preds = %0, %23
  %24 = phi i64 [ %27, %23 ], [ 0, %0 ]
  %25 = getelementptr inbounds [100001 x i32], [100001 x i32]* %3, i64 0, i64 %24
  %26 = call nonnull align 8 dereferenceable(16) %"class.std::basic_istream"* @_ZNSirsERi(%"class.std::basic_istream"* nonnull align 8 dereferenceable(16) @_ZSt3cin, i32* nonnull align 4 dereferenceable(4) %25)
  %27 = add nuw nsw i64 %24, 1
  %28 = load i32, i32* %1, align 4, !tbaa !5
  %29 = sext i32 %28 to i64
  %30 = icmp slt i64 %27, %29
  br i1 %30, label %23, label %12, !llvm.loop !9

31:                                               ; preds = %95, %17
  %32 = phi i32 [ undef, %17 ], [ %97, %95 ]
  %33 = phi i64 [ 0, %17 ], [ %98, %95 ]
  %34 = phi i32 [ 0, %17 ], [ %97, %95 ]
  %35 = phi i32 [ 0, %17 ], [ %96, %95 ]
  %36 = icmp eq i64 %19, 0
  br i1 %36, label %46, label %37

37:                                               ; preds = %31
  %38 = getelementptr inbounds [100001 x i32], [100001 x i32]* %3, i64 0, i64 %33
  %39 = load i32, i32* %38, align 4, !tbaa !5
  %40 = icmp eq i32 %39, %15
  br i1 %40, label %44, label %41

41:                                               ; preds = %37
  %42 = sext i32 %35 to i64
  %43 = getelementptr inbounds [100001 x i32], [100001 x i32]* %4, i64 0, i64 %42
  store i32 %39, i32* %43, align 4, !tbaa !5
  br label %46

44:                                               ; preds = %37
  %45 = add nsw i32 %34, 1
  br label %46

46:                                               ; preds = %44, %41, %31
  %47 = phi i32 [ %32, %31 ], [ %34, %41 ], [ %45, %44 ]
  %48 = icmp sgt i32 %14, %47
  br i1 %48, label %49, label %77

49:                                               ; preds = %46
  %50 = getelementptr inbounds [100001 x i32], [100001 x i32]* %4, i64 0, i64 0
  %51 = load i32, i32* %50, align 16
  %52 = call nonnull align 8 dereferenceable(8) %"class.std::basic_ostream"* @_ZNSolsEi(%"class.std::basic_ostream"* nonnull align 8 dereferenceable(8) @_ZSt4cout, i32 %51)
  %53 = load i32, i32* %1, align 4, !tbaa !5
  %54 = sub nsw i32 %53, %47
  %55 = icmp sgt i32 %54, 1
  br i1 %55, label %78, label %77

56:                                               ; preds = %95, %21
  %57 = phi i64 [ 0, %21 ], [ %98, %95 ]
  %58 = phi i32 [ 0, %21 ], [ %97, %95 ]
  %59 = phi i32 [ 0, %21 ], [ %96, %95 ]
  %60 = phi i64 [ %22, %21 ], [ %99, %95 ]
  %61 = getelementptr inbounds [100001 x i32], [100001 x i32]* %3, i64 0, i64 %57
  %62 = load i32, i32* %61, align 8, !tbaa !5
  %63 = icmp eq i32 %62, %15
  br i1 %63, label %68, label %64

64:                                               ; preds = %56
  %65 = sext i32 %59 to i64
  %66 = getelementptr inbounds [100001 x i32], [100001 x i32]* %4, i64 0, i64 %65
  store i32 %62, i32* %66, align 4, !tbaa !5
  %67 = add nsw i32 %59, 1
  br label %70

68:                                               ; preds = %56
  %69 = add nsw i32 %58, 1
  br label %70

70:                                               ; preds = %64, %68
  %71 = phi i32 [ %67, %64 ], [ %59, %68 ]
  %72 = phi i32 [ %58, %64 ], [ %69, %68 ]
  %73 = or i64 %57, 1
  %74 = getelementptr inbounds [100001 x i32], [100001 x i32]* %3, i64 0, i64 %73
  %75 = load i32, i32* %74, align 4, !tbaa !5
  %76 = icmp eq i32 %75, %15
  br i1 %76, label %93, label %89

77:                                               ; preds = %78, %12, %49, %46
  call void @llvm.lifetime.end.p0i8(i64 400004, i8* nonnull %9) #7
  call void @llvm.lifetime.end.p0i8(i64 400004, i8* nonnull %8) #7
  call void @llvm.lifetime.end.p0i8(i64 4, i8* nonnull %6) #7
  call void @llvm.lifetime.end.p0i8(i64 4, i8* nonnull %5) #7
  ret i32 0

78:                                               ; preds = %49, %78
  %79 = phi i64 [ %85, %78 ], [ 1, %49 ]
  %80 = call nonnull align 8 dereferenceable(8) %"class.std::basic_ostream"* @_ZSt16__ostream_insertIcSt11char_traitsIcEERSt13basic_ostreamIT_T0_ES6_PKS3_l(%"class.std::basic_ostream"* nonnull align 8 dereferenceable(8) @_ZSt4cout, i8* nonnull getelementptr inbounds ([2 x i8], [2 x i8]* @.str, i64 0, i64 0), i64 1)
  %81 = getelementptr inbounds [100001 x i32], [100001 x i32]* %4, i64 0, i64 %79
  %82 = load i32, i32* %81, align 4, !tbaa !5
  %83 = call nonnull align 8 dereferenceable(8) %"class.std::basic_ostream"* @_ZNSolsEi(%"class.std::basic_ostream"* nonnull align 8 dereferenceable(8) @_ZSt4cout, i32 %82)
  %84 = load i32, i32* %1, align 4, !tbaa !5
  %85 = add nuw nsw i64 %79, 1
  %86 = sub nsw i32 %84, %47
  %87 = sext i32 %86 to i64
  %88 = icmp slt i64 %85, %87
  br i1 %88, label %78, label %77, !llvm.loop !11

89:                                               ; preds = %70
  %90 = sext i32 %71 to i64
  %91 = getelementptr inbounds [100001 x i32], [100001 x i32]* %4, i64 0, i64 %90
  store i32 %75, i32* %91, align 4, !tbaa !5
  %92 = add nsw i32 %71, 1
  br label %95

93:                                               ; preds = %70
  %94 = add nsw i32 %72, 1
  br label %95

95:                                               ; preds = %93, %89
  %96 = phi i32 [ %92, %89 ], [ %71, %93 ]
  %97 = phi i32 [ %72, %89 ], [ %94, %93 ]
  %98 = add nuw nsw i64 %57, 2
  %99 = add i64 %60, -2
  %100 = icmp eq i64 %99, 0
  br i1 %100, label %31, label %56, !llvm.loop !13
}

; Function Attrs: argmemonly mustprogress nofree nosync nounwind willreturn
declare void @llvm.lifetime.start.p0i8(i64 immarg, i8* nocapture) #4

declare nonnull align 8 dereferenceable(16) %"class.std::basic_istream"* @_ZNSirsERi(%"class.std::basic_istream"* nonnull align 8 dereferenceable(16), i32* nonnull align 4 dereferenceable(4)) local_unnamed_addr #0

; Function Attrs: argmemonly mustprogress nofree nounwind willreturn writeonly
declare void @llvm.memset.p0i8.i64(i8* nocapture writeonly, i8, i64, i1 immarg) #5

; Function Attrs: argmemonly mustprogress nofree nosync nounwind willreturn
declare void @llvm.lifetime.end.p0i8(i64 immarg, i8* nocapture) #4

declare nonnull align 8 dereferenceable(8) %"class.std::basic_ostream"* @_ZNSolsEi(%"class.std::basic_ostream"* nonnull align 8 dereferenceable(8), i32) local_unnamed_addr #0

declare nonnull align 8 dereferenceable(8) %"class.std::basic_ostream"* @_ZSt16__ostream_insertIcSt11char_traitsIcEERSt13basic_ostreamIT_T0_ES6_PKS3_l(%"class.std::basic_ostream"* nonnull align 8 dereferenceable(8), i8*, i64) local_unnamed_addr #0

; Function Attrs: sspstrong uwtable
define internal void @_GLOBAL__sub_I_1344.cpp() #6 section ".text.startup" {
  tail call void @_ZNSt8ios_base4InitC1Ev(%"class.std::ios_base::Init"* nonnull align 1 dereferenceable(1) @_ZStL8__ioinit)
  %1 = tail call i32 @__cxa_atexit(void (i8*)* bitcast (void (%"class.std::ios_base::Init"*)* @_ZNSt8ios_base4InitD1Ev to void (i8*)*), i8* getelementptr inbounds (%"class.std::ios_base::Init", %"class.std::ios_base::Init"* @_ZStL8__ioinit, i64 0, i32 0), i8* nonnull @__dso_handle) #7
  ret void
}


!llvm.module.flags = !{!0, !1, !2, !3}
!llvm.ident = !{!4}

!0 = !{i32 1, !"wchar_size", i32 4}
!1 = !{i32 7, !"PIC Level", i32 2}
!2 = !{i32 7, !"PIE Level", i32 2}
!3 = !{i32 7, !"uwtable", i32 1}
!4 = !{!"clang version 13.0.0"}
!5 = !{!6, !6, i64 0}
!6 = !{!"int", !7, i64 0}
!7 = !{!"omnipotent char", !8, i64 0}
!8 = !{!"Simple C++ TBAA"}
!9 = distinct !{!9, !10}
!10 = !{!"llvm.loop.mustprogress"}
!11 = distinct !{!11, !10, !12}
!12 = !{!"llvm.loop.peeled.count", i32 1}
!13 = distinct !{!13, !10}
